target datalayout = "e-m:e-p270:32:32-p271:32:32-p272:64:64-i64:64-i128:128-f80:128-n8:16:32:64-S128"
target triple = "x86_64-pc-linux-gnu"

%"class.nanobind::handle" = type { ptr }
%"class.std::chrono::time_point" = type { %"class.std::chrono::duration" }
%"class.std::chrono::duration" = type { i64 }
%class.anon.28 = type { i8 }
%"struct.nanobind::detail::tuple.30" = type { %"class.nanobind::detail::type_caster" }
%"class.nanobind::detail::type_caster" = type { %"class.std::chrono::time_point" }

; Function Attrs: noinline noreturn nounwind optsize uwtable
define linkonce_odr hidden void @__clang_call_terminate(ptr noundef %0) #7 comdat {
  %2 = call ptr @__cxa_begin_catch(ptr %0) #16
  call void @_ZSt9terminatev() #18
  unreachable
}

; Function Attrs: mustprogress nounwind optsize uwtable
define linkonce_odr void @_ZNSt6chrono8durationIlSt5ratioILl1ELl1000000000EEEC2IlvEERKT_(ptr noundef nonnull align 8 dereferenceable(8) %0, ptr noundef nonnull align 8 dereferenceable(8) %1) unnamed_addr #8 comdat align 2 {
  %3 = alloca ptr, align 8
  %4 = alloca ptr, align 8
  store ptr %0, ptr %3, align 8, !tbaa !122
  store ptr %1, ptr %4, align 8, !tbaa !102
  %5 = load ptr, ptr %3, align 8
  %6 = getelementptr inbounds nuw %"class.std::chrono::duration", ptr %5, i32 0, i32 0
  %7 = load ptr, ptr %4, align 8, !tbaa !102
  %8 = load i64, ptr %7, align 8, !tbaa !83
  store i64 %8, ptr %6, align 8, !tbaa !140
  ret void
}

; Function Attrs: mustprogress nounwind optsize uwtable
define linkonce_odr noundef i64 @_ZNSt6chrono15duration_valuesIlE4zeroEv() #8 comdat align 2 {
  ret i64 0
}

; Function Attrs: mustprogress nounwind optsize uwtable
define linkonce_odr i64 @_ZNSt6chrono8durationIlSt5ratioILl1ELl1000000000EEE4zeroEv() #8 comdat align 2 personality ptr @__gxx_personality_v0 {
  %1 = alloca %"class.std::chrono::duration", align 8
  %2 = alloca i64, align 8
  call void @llvm.lifetime.start.p0(i64 8, ptr %2) #16
  %3 = call noundef i64 @_ZNSt6chrono15duration_valuesIlE4zeroEv() #17
  store i64 %3, ptr %2, align 8, !tbaa !83
  invoke void @_ZNSt6chrono8durationIlSt5ratioILl1ELl1000000000EEEC2IlvEERKT_(ptr noundef nonnull align 8 dereferenceable(8) %1, ptr noundef nonnull align 8 dereferenceable(8) %2) #15
          to label %4 unwind label %7

4:                                                ; preds = %0
  call void @llvm.lifetime.end.p0(i64 8, ptr %2) #16
  %5 = getelementptr inbounds nuw %"class.std::chrono::duration", ptr %1, i32 0, i32 0
  %6 = load i64, ptr %5, align 8
  ret i64 %6

7:                                                ; preds = %0
  %8 = landingpad { ptr, i32 }
          catch ptr null
  %9 = extractvalue { ptr, i32 } %8, 0
  call void @__clang_call_terminate(ptr %9) #18
  unreachable
}

; Function Attrs: mustprogress nounwind optsize uwtable
define linkonce_odr void @_ZNSt6chrono10time_pointINS_3_V212system_clockENS_8durationIlSt5ratioILl1ELl1000000000EEEEEC2Ev(ptr noundef nonnull align 8 dereferenceable(8) %0) unnamed_addr #8 comdat align 2 {
  %2 = alloca ptr, align 8
  store ptr %0, ptr %2, align 8, !tbaa !112
  %3 = load ptr, ptr %2, align 8
  %4 = call i64 @_ZNSt6chrono8durationIlSt5ratioILl1ELl1000000000EEE4zeroEv() #17
  %5 = getelementptr inbounds nuw %"class.std::chrono::duration", ptr %3, i32 0, i32 0
  store i64 %4, ptr %5, align 8
  ret void
}

; Function Attrs: inlinehint mustprogress optsize uwtable
define linkonce_odr hidden void @_ZN8nanobind6detail11type_casterINSt6chrono10time_pointINS2_3_V212system_clockENS2_8durationIlSt5ratioILl1ELl1000000000EEEEEEiEC2Ev(ptr noundef nonnull align 8 dereferenceable(8) %0) unnamed_addr #9 comdat align 2 {
  %2 = alloca ptr, align 8
  store ptr %0, ptr %2, align 8, !tbaa !148
  %3 = load ptr, ptr %2, align 8
  %4 = getelementptr inbounds nuw %"class.nanobind::detail::type_caster", ptr %3, i32 0, i32 0
  call void @_ZNSt6chrono10time_pointINS_3_V212system_clockENS_8durationIlSt5ratioILl1ELl1000000000EEEEEC2Ev(ptr noundef nonnull align 8 dereferenceable(8) %4) #15
  ret void
}

; Function Attrs: alwaysinline mustprogress nounwind optsize uwtable
define linkonce_odr hidden noundef ptr @_ZNK8nanobind6handle3ptrEv(ptr noundef nonnull align 8 dereferenceable(8) %0) #5 comdat align 2 {
  %2 = alloca ptr, align 8
  store ptr %0, ptr %2, align 8, !tbaa !12
  %3 = load ptr, ptr %2, align 8
  %4 = getelementptr inbounds nuw %"class.nanobind::handle", ptr %3, i32 0, i32 0
  %5 = load ptr, ptr %4, align 8, !tbaa !14
  ret ptr %5
}

; Function Attrs: inlinehint mustprogress nounwind optsize uwtable
define internal i64 @"_ZZL29nanobind_init_test_chrono_extRN8nanobind7module_EENK3$_1clENSt6chrono10time_pointINS3_3_V212system_clockENS3_8durationIlSt5ratioILl1ELl1000000000EEEEEE"(ptr noundef nonnull align 1 dereferenceable(1) %0, i64 %1) #11 align 2 {
  %3 = alloca %"class.std::chrono::time_point", align 8
  %4 = alloca %"class.std::chrono::time_point", align 8
  %5 = alloca ptr, align 8
  %6 = getelementptr inbounds nuw %"class.std::chrono::time_point", ptr %4, i32 0, i32 0
  %7 = getelementptr inbounds nuw %"class.std::chrono::duration", ptr %6, i32 0, i32 0
  store i64 %1, ptr %7, align 8
  store ptr %0, ptr %5, align 8, !tbaa !28
  call void @llvm.memcpy.p0.p0.i64(ptr align 8 %3, ptr align 8 %4, i64 8, i1 false), !tbaa.struct !126
  %8 = getelementptr inbounds nuw %"class.std::chrono::time_point", ptr %3, i32 0, i32 0
  %9 = getelementptr inbounds nuw %"class.std::chrono::duration", ptr %8, i32 0, i32 0
  %10 = load i64, ptr %9, align 8
  ret i64 %10
}

; Function Attrs: mustprogress nounwind optsize uwtable
define linkonce_odr hidden noundef nonnull align 8 dereferenceable(8) ptr @_ZN8nanobind6detail11type_casterINSt6chrono10time_pointINS2_3_V212system_clockENS2_8durationIlSt5ratioILl1ELl1000000000EEEEEEiEcvOSA_Ev(ptr noundef nonnull align 8 dereferenceable(8) %0) #8 comdat align 2 {
  %2 = alloca ptr, align 8
  store ptr %0, ptr %2, align 8, !tbaa !148
  %3 = load ptr, ptr %2, align 8
  %4 = getelementptr inbounds nuw %"class.nanobind::detail::type_caster", ptr %3, i32 0, i32 0
  ret ptr %4
}

; Function Attrs: alwaysinline mustprogress nounwind optsize uwtable
define linkonce_odr hidden void @_ZN8nanobind6handleC2EPK7_object(ptr noundef nonnull align 8 dereferenceable(8) %0, ptr noundef %1) unnamed_addr #5 comdat align 2 {
  %3 = alloca ptr, align 8
  %4 = alloca ptr, align 8
  store ptr %0, ptr %3, align 8, !tbaa !12
  store ptr %1, ptr %4, align 8, !tbaa !3
  %5 = load ptr, ptr %3, align 8
  %6 = getelementptr inbounds nuw %"class.nanobind::handle", ptr %5, i32 0, i32 0
  %7 = load ptr, ptr %4, align 8, !tbaa !3
  store ptr %7, ptr %6, align 8, !tbaa !14
  ret void
}

; Function Attrs: alwaysinline mustprogress nounwind optsize uwtable
define linkonce_odr hidden noundef nonnull align 8 dereferenceable(8) ptr @_ZN8nanobind6detail5tupleIJNS0_11type_casterINSt6chrono10time_pointINS3_3_V212system_clockENS3_8durationIlSt5ratioILl1ELl1000000000EEEEEEiEEEE3getILm0EEERDav(ptr noundef nonnull align 8 dereferenceable(8) %0) #5 comdat align 2 {
  %2 = alloca ptr, align 8
  store ptr %0, ptr %2, align 8, !tbaa !146
  %3 = load ptr, ptr %2, align 8
  %4 = getelementptr inbounds nuw %"struct.nanobind::detail::tuple.30", ptr %3, i32 0, i32 0
  ret ptr %4
}

; Function Attrs: mustprogress optsize uwtable
define linkonce_odr hidden void @_ZN8nanobind6detail5tupleIJNS0_11type_casterINSt6chrono10time_pointINS3_3_V212system_clockENS3_8durationIlSt5ratioILl1ELl1000000000EEEEEEiEEEEC2Ev(ptr noundef nonnull align 8 dereferenceable(8) %0) unnamed_addr #0 comdat align 2 {
  %2 = alloca ptr, align 8
  store ptr %0, ptr %2, align 8, !tbaa !146
  %3 = load ptr, ptr %2, align 8
  %4 = getelementptr inbounds nuw %"struct.nanobind::detail::tuple.30", ptr %3, i32 0, i32 0
  call void @_ZN8nanobind6detail11type_casterINSt6chrono10time_pointINS2_3_V212system_clockENS2_8durationIlSt5ratioILl1ELl1000000000EEEEEEiEC2Ev(ptr noundef nonnull align 8 dereferenceable(8) %4) #15
  ret void
}

; Function Attrs: alwaysinline mustprogress optsize uwtable
define internal noundef ptr @"_ZZN8nanobind6detail11func_createILb0ELb1EZL29nanobind_init_test_chrono_extRNS_7module_EE3$_1NSt6chrono10time_pointINS5_3_V212system_clockENS5_8durationIlSt5ratioILl1ELl1000000000EEEEEEJSD_EJLm0EEJNS_5scopeENS_4nameEEEEP7_objectOT1_PFT2_DpT3_ESt16integer_sequenceImJXspT4_EEEDpRKT5_ENKUlPvPSH_PhNS_9rv_policyEPNS0_12cleanup_listEE_clESV_SW_SX_SY_S10_"(ptr noundef nonnull align 1 dereferenceable(1) %0, ptr noundef %1, ptr noundef %2, ptr noundef %3, i32 noundef %4, ptr noundef %5) #3 align 2 {
  %7 = alloca ptr, align 8
  %8 = alloca ptr, align 8
  %9 = alloca ptr, align 8
  %10 = alloca ptr, align 8
  %11 = alloca ptr, align 8
  %12 = alloca i32, align 4
  %13 = alloca ptr, align 8
  %14 = alloca ptr, align 8
  %15 = alloca %"struct.nanobind::detail::tuple.30", align 8
  %16 = alloca %"class.nanobind::handle", align 8
  %17 = alloca i32, align 4
  %18 = alloca ptr, align 8
  %19 = alloca %"class.nanobind::handle", align 8
  %20 = alloca %"class.std::chrono::time_point", align 8
  %21 = alloca %"class.std::chrono::time_point", align 8
  store ptr %0, ptr %8, align 8, !tbaa !28
  store ptr %1, ptr %9, align 8, !tbaa !28
  store ptr %2, ptr %10, align 8, !tbaa !106
  store ptr %3, ptr %11, align 8, !tbaa !26
  store i32 %4, ptr %12, align 4, !tbaa !108
  store ptr %5, ptr %13, align 8, !tbaa !110
  call void @llvm.lifetime.start.p0(i64 8, ptr %14) #16
  %22 = load ptr, ptr %9, align 8, !tbaa !28
  store ptr %22, ptr %14, align 8, !tbaa !142
  call void @llvm.lifetime.start.p0(i64 8, ptr %15) #16
  call void @_ZN8nanobind6detail5tupleIJNS0_11type_casterINSt6chrono10time_pointINS3_3_V212system_clockENS3_8durationIlSt5ratioILl1ELl1000000000EEEEEEiEEEEC2Ev(ptr noundef nonnull align 8 dereferenceable(8) %15) #15
  %23 = call noundef nonnull align 8 dereferenceable(8) ptr @_ZN8nanobind6detail5tupleIJNS0_11type_casterINSt6chrono10time_pointINS3_3_V212system_clockENS3_8durationIlSt5ratioILl1ELl1000000000EEEEEEiEEEE3getILm0EEERDav(ptr noundef nonnull align 8 dereferenceable(8) %15) #15
  %24 = load ptr, ptr %10, align 8, !tbaa !106
  %25 = getelementptr inbounds nuw ptr, ptr %24, i64 0
  %26 = load ptr, ptr %25, align 8, !tbaa !3
  call void @_ZN8nanobind6handleC2EPK7_object(ptr noundef nonnull align 8 dereferenceable(8) %16, ptr noundef %26) #15
  %27 = load ptr, ptr %11, align 8, !tbaa !26
  %28 = getelementptr inbounds nuw i8, ptr %27, i64 0
  %29 = load i8, ptr %28, align 1, !tbaa !44
  %30 = load ptr, ptr %13, align 8, !tbaa !110
  %31 = getelementptr inbounds nuw %"class.nanobind::handle", ptr %16, i32 0, i32 0
  %32 = load ptr, ptr %31, align 8
  %33 = call noundef zeroext i1 @_ZN8nanobind6detail11type_casterINSt6chrono10time_pointINS2_3_V212system_clockENS2_8durationIlSt5ratioILl1ELl1000000000EEEEEEiE11from_pythonENS_6handleEhPNS0_12cleanup_listE(ptr noundef nonnull align 8 dereferenceable(8) %23, ptr %32, i8 noundef zeroext %29, ptr noundef %30) #17
  br i1 %33, label %35, label %34

34:                                               ; preds = %6
  store ptr inttoptr (i64 1 to ptr), ptr %7, align 8
  store i32 1, ptr %17, align 4
  br label %51

35:                                               ; preds = %6
  call void @llvm.lifetime.start.p0(i64 8, ptr %18) #16
  call void @llvm.lifetime.start.p0(i64 8, ptr %19) #16
  call void @llvm.lifetime.start.p0(i64 8, ptr %20) #16
  %36 = load ptr, ptr %14, align 8, !tbaa !142
  %37 = call noundef nonnull align 8 dereferenceable(8) ptr @_ZN8nanobind6detail5tupleIJNS0_11type_casterINSt6chrono10time_pointINS3_3_V212system_clockENS3_8durationIlSt5ratioILl1ELl1000000000EEEEEEiEEEE3getILm0EEERDav(ptr noundef nonnull align 8 dereferenceable(8) %15) #15
  %38 = call noundef nonnull align 8 dereferenceable(8) ptr @_ZN8nanobind6detail11type_casterINSt6chrono10time_pointINS2_3_V212system_clockENS2_8durationIlSt5ratioILl1ELl1000000000EEEEEEiEcvOSA_Ev(ptr noundef nonnull align 8 dereferenceable(8) %37) #15
  call void @llvm.memcpy.p0.p0.i64(ptr align 8 %21, ptr align 8 %38, i64 8, i1 false), !tbaa.struct !126
  %39 = getelementptr inbounds nuw %"class.std::chrono::time_point", ptr %21, i32 0, i32 0
  %40 = getelementptr inbounds nuw %"class.std::chrono::duration", ptr %39, i32 0, i32 0
  %41 = load i64, ptr %40, align 8
  %42 = call i64 @"_ZZL29nanobind_init_test_chrono_extRN8nanobind7module_EENK3$_1clENSt6chrono10time_pointINS3_3_V212system_clockENS3_8durationIlSt5ratioILl1ELl1000000000EEEEEE"(ptr noundef nonnull align 1 dereferenceable(1) %36, i64 %41) #15
  %43 = getelementptr inbounds nuw %"class.std::chrono::time_point", ptr %20, i32 0, i32 0
  %44 = getelementptr inbounds nuw %"class.std::chrono::duration", ptr %43, i32 0, i32 0
  store i64 %42, ptr %44, align 8
  %45 = load i32, ptr %12, align 4, !tbaa !108
  %46 = load ptr, ptr %13, align 8, !tbaa !110
  %47 = call ptr @_ZN8nanobind6detail11type_casterINSt6chrono10time_pointINS2_3_V212system_clockENS2_8durationIlSt5ratioILl1ELl1000000000EEEEEEiE8from_cppERKSA_NS_9rv_policyEPNS0_12cleanup_listE(ptr noundef nonnull align 8 dereferenceable(8) %20, i32 noundef %45, ptr noundef %46) #17
  %48 = getelementptr inbounds nuw %"class.nanobind::handle", ptr %19, i32 0, i32 0
  store ptr %47, ptr %48, align 8
  %49 = call noundef ptr @_ZNK8nanobind6handle3ptrEv(ptr noundef nonnull align 8 dereferenceable(8) %19) #15
  store ptr %49, ptr %18, align 8, !tbaa !3
  call void @llvm.lifetime.end.p0(i64 8, ptr %20) #16
  call void @llvm.lifetime.end.p0(i64 8, ptr %19) #16
  %50 = load ptr, ptr %18, align 8, !tbaa !3
  store ptr %50, ptr %7, align 8
  store i32 1, ptr %17, align 4
  call void @llvm.lifetime.end.p0(i64 8, ptr %18) #16
  br label %51

51:                                               ; preds = %35, %34
  call void @llvm.lifetime.end.p0(i64 8, ptr %15) #16
  call void @llvm.lifetime.end.p0(i64 8, ptr %14) #16
  %52 = load ptr, ptr %7, align 8
  ret ptr %52
}

; Function Attrs: inlinehint mustprogress optsize uwtable
define internal noundef ptr @"_ZZN8nanobind6detail11func_createILb0ELb1EZL29nanobind_init_test_chrono_extRNS_7module_EE3$_1NSt6chrono10time_pointINS5_3_V212system_clockENS5_8durationIlSt5ratioILl1ELl1000000000EEEEEEJSD_EJLm0EEJNS_5scopeENS_4nameEEEEP7_objectOT1_PFT2_DpT3_ESt16integer_sequenceImJXspT4_EEEDpRKT5_ENUlPvPSH_PhNS_9rv_policyEPNS0_12cleanup_listEE_8__invokeESV_SW_SX_SY_S10_"(ptr noundef %0, ptr noundef %1, ptr noundef %2, i32 noundef %3, ptr noundef %4) #9 align 2 {
  %6 = alloca ptr, align 8
  %7 = alloca ptr, align 8
  %8 = alloca ptr, align 8
  %9 = alloca i32, align 4
  %10 = alloca ptr, align 8
  %11 = alloca %class.anon.28, align 1
  store ptr %0, ptr %6, align 8, !tbaa !28
  store ptr %1, ptr %7, align 8, !tbaa !106
  store ptr %2, ptr %8, align 8, !tbaa !26
  store i32 %3, ptr %9, align 4, !tbaa !108
  store ptr %4, ptr %10, align 8, !tbaa !110
  %12 = load ptr, ptr %6, align 8, !tbaa !28
  %13 = load ptr, ptr %7, align 8, !tbaa !106
  %14 = load ptr, ptr %8, align 8, !tbaa !26
  %15 = load i32, ptr %9, align 4, !tbaa !108
  %16 = load ptr, ptr %10, align 8, !tbaa !110
  %17 = call noundef ptr @"_ZZN8nanobind6detail11func_createILb0ELb1EZL29nanobind_init_test_chrono_extRNS_7module_EE3$_1NSt6chrono10time_pointINS5_3_V212system_clockENS5_8durationIlSt5ratioILl1ELl1000000000EEEEEEJSD_EJLm0EEJNS_5scopeENS_4nameEEEEP7_objectOT1_PFT2_DpT3_ESt16integer_sequenceImJXspT4_EEEDpRKT5_ENKUlPvPSH_PhNS_9rv_policyEPNS0_12cleanup_listEE_clESV_SW_SX_SY_S10_"(ptr noundef nonnull align 1 dereferenceable(1) %11, ptr noundef %12, ptr noundef %13, ptr noundef %14, i32 noundef %15, ptr noundef %16) #15
  ret ptr %17
}